target datalayout = "e-m:e-p270:32:32-p271:32:32-p272:64:64-i64:64-i128:128-f80:128-n8:16:32:64-S128"
target triple = "x86_64-pc-linux-gnu"

%struct.URLContext = type { ptr, ptr, ptr, ptr, i32, i32, i32, i32, %struct.AVIOInterruptCB, i64, ptr, ptr, i32 }
%struct.AVIOInterruptCB = type { ptr, ptr }
%struct.TCPContext = type { ptr, i32, i32, ptr, ptr, i32, i32, i32, i32, i32, i32, i32 }

; Function Attrs: nounwind uwtable
define internal i32 @tcp_get_window_size(ptr noundef %0) #0 {
  %2 = alloca i32, align 4
  %3 = alloca ptr, align 8
  %4 = alloca ptr, align 8
  %5 = alloca i32, align 4
  %6 = alloca i32, align 4
  %7 = alloca i32, align 4
  store ptr %0, ptr %3, align 8, !tbaa !4
  call void @llvm.lifetime.start.p0(i64 8, ptr %4) #9
  %8 = load ptr, ptr %3, align 8, !tbaa !4
  %9 = getelementptr inbounds nuw %struct.URLContext, ptr %8, i32 0, i32 2
  %10 = load ptr, ptr %9, align 8, !tbaa !13
  store ptr %10, ptr %4, align 8, !tbaa !19
  call void @llvm.lifetime.start.p0(i64 4, ptr %5) #9
  call void @llvm.lifetime.start.p0(i64 4, ptr %6) #9
  store i32 4, ptr %6, align 4, !tbaa !11
  %11 = load ptr, ptr %4, align 8, !tbaa !19
  %12 = getelementptr inbounds nuw %struct.TCPContext, ptr %11, i32 0, i32 1
  %13 = load i32, ptr %12, align 8, !tbaa !51
  %14 = call i32 @getsockopt(i32 noundef %13, i32 noundef 1, i32 noundef 8, ptr noundef %5, ptr noundef %6) #9
  %15 = icmp ne i32 %14, 0
  br i1 %15, label %16, label %20

16:                                               ; preds = %1
  %17 = call ptr @__errno_location() #11
  %18 = load i32, ptr %17, align 4, !tbaa !11
  %19 = sub nsw i32 0, %18
  store i32 %19, ptr %2, align 4
  store i32 1, ptr %7, align 4
  br label %22

20:                                               ; preds = %1
  %21 = load i32, ptr %5, align 4, !tbaa !11
  store i32 %21, ptr %2, align 4
  store i32 1, ptr %7, align 4
  br label %22

22:                                               ; preds = %20, %16
  call void @llvm.lifetime.end.p0(i64 4, ptr %6) #9
  call void @llvm.lifetime.end.p0(i64 4, ptr %5) #9
  call void @llvm.lifetime.end.p0(i64 8, ptr %4) #9
  %23 = load i32, ptr %2, align 4
  ret i32 %23
}