; Function Attrs: nounwind uwtable
define internal i32 @tcp_get_window_size(ptr noundef readonly captures(none) %0) #0 {
  %2 = alloca i32, align 4
  %3 = alloca i32, align 4
  %4 = getelementptr inbounds nuw i8, ptr %0, i64 16
  %5 = load ptr, ptr %4, align 8, !tbaa !8
  call void @llvm.lifetime.start.p0(i64 4, ptr nonnull %2) #12
  call void @llvm.lifetime.start.p0(i64 4, ptr nonnull %3) #12
  store i32 4, ptr %3, align 4, !tbaa !4
  %6 = getelementptr inbounds nuw i8, ptr %5, i64 8
  %7 = load i32, ptr %6, align 8, !tbaa !45
  %8 = call i32 @getsockopt(i32 noundef %7, i32 noundef 1, i32 noundef 8, ptr noundef nonnull %2, ptr noundef nonnull %3) #12
  %.not = icmp eq i32 %8, 0
  br i1 %.not, label %13, label %9

9:                                                ; preds = %1
  %10 = tail call ptr @__errno_location() #14
  %11 = load i32, ptr %10, align 4, !tbaa !4
  %12 = sub nsw i32 0, %11
  br label %15

13:                                               ; preds = %1
  %14 = load i32, ptr %2, align 4, !tbaa !4
  br label %15

15:                                               ; preds = %13, %9
  %.0 = phi i32 [ %12, %9 ], [ %14, %13 ]
  call void @llvm.lifetime.end.p0(i64 4, ptr nonnull %3) #12
  call void @llvm.lifetime.end.p0(i64 4, ptr nonnull %2) #12
  ret i32 %.0
}